; Function Attrs: mustprogress uwtable
define i64 @_ZN6duckdb21DictionaryCompression13GetDictionaryERNS_13ColumnSegmentERNS_12BufferHandleE(ptr noundef nonnull readonly align 8 captures(none) dereferenceable(224) %0, ptr noundef nonnull align 8 dereferenceable(24) %1) local_unnamed_addr #0 align 2 {
  %3 = getelementptr inbounds nuw i8, ptr %1, i64 16
  tail call void @_ZNK6duckdb12optional_ptrINS_10FileBufferELb1EE10CheckValidEv(ptr noundef nonnull align 8 dereferenceable(8) %3)
  %4 = load ptr, ptr %3, align 8, !tbaa !3
  %5 = getelementptr inbounds nuw i8, ptr %4, i64 16
  %6 = load ptr, ptr %5, align 8, !tbaa !9
  %7 = getelementptr inbounds nuw i8, ptr %0, i64 200
  %8 = load i64, ptr %7, align 8, !tbaa !15
  %9 = getelementptr inbounds nuw i8, ptr %6, i64 %8
  %.0.copyload.i = load i64, ptr %9, align 1
  ret i64 %.0.copyload.i
}